Certificate:
    Data:
        Version: 3 (0x2)
        Serial Number: 286 (0x11e)
    Signature Algorithm: sha256WithRSAEncryption
        Issuer: C=KR, ST=Seoul, L=Seoul, O=SSU, OU=SW, CN=ca/emailAddress=ca@ssu.ac.kr
        Validity
            Not Before: Oct  7 05:56:16 2019 GMT
            Not After : Oct  6 05:56:16 2020 GMT
        Subject: C=KR, ST=Seoul, O=SSU, OU=SW, CN=server/emailAddress=server@ssu.ac.kr
        Subject Public Key Info:
            Public Key Algorithm: rsaEncryption
                Public-Key: (1024 bit)
                Modulus:
                    00:bf:b2:a8:dc:9e:6d:ad:48:e9:2f:4e:57:0d:85:
                    e4:a8:27:8f:52:a9:6f:49:0a:66:a8:2e:02:c2:7d:
                    8c:5a:34:f7:3c:1d:9a:81:3d:08:ad:03:bf:44:11:
                    44:92:a3:60:30:53:4b:70:73:f0:a4:d9:d4:be:a5:
                    d4:fa:a0:49:bf:a0:0f:93:47:7e:e0:ff:91:c6:ba:
                    2b:00:f8:30:9e:e7:3d:26:77:bd:62:2d:cd:00:bc:
                    65:11:d6:7e:62:aa:47:06:b8:a7:2d:3b:14:39:31:
                    3e:89:d5:f9:ab:2e:11:54:e7:88:22:01:32:11:ea:
                    51:ad:80:f9:0d:87:ba:79:5f
                Exponent: 65537 (0x10001)
        X509v3 extensions:
            X509v3 Basic Constraints: 
                CA:FALSE
            Netscape Comment: 
                OpenSSL Generated Certificate
            X509v3 Subject Key Identifier: 
                AF:16:49:3E:52:0F:28:35:7E:BE:D5:2C:14:DA:47:F4:49:7D:A0:99
            X509v3 Authority Key Identifier: 
                keyid:5D:C7:5B:71:4B:A7:C9:05:E2:F1:A3:CE:3F:B5:99:A4:12:EE:D7:0F

    Signature Algorithm: sha256WithRSAEncryption
         25:1d:6c:fa:bc:a7:43:e8:13:9b:f2:d9:a0:d6:ba:62:c7:94:
         ef:a8:d4:cb:ec:6e:c3:94:12:15:a8:07:fe:04:1a:56:b8:19:
         c9:75:7c:68:79:ee:3d:ba:0a:8f:d0:7c:01:ae:38:30:98:ca:
         4b:25:71:ce:a0:c8:69:21:96:d7:50:da:4b:33:5d:6b:0a:d6:
         32:7c:b0:83:37:bd:4a:cb:5b:4e:2e:4b:ae:61:d6:88:35:96:
         d1:94:c5:9e:2b:ce:5a:ee:2b:c4:09:59:44:a4:df:39:18:16:
         75:ea:ba:46:96:00:fd:9d:16:7b:fb:ae:d7:7e:81:ba:f1:88:
         dc:80
-----BEGIN CERTIFICATE-----
MIICzjCCAjegAwIBAgICAR4wDQYJKoZIhvcNAQELBQAwcjELMAkGA1UEBhMCS1Ix
DjAMBgNVBAgMBVNlb3VsMQ4wDAYDVQQHDAVTZW91bDEMMAoGA1UECgwDU1NVMQsw
CQYDVQQLDAJTVzELMAkGA1UEAwwCY2ExGzAZBgkqhkiG9w0BCQEWDGNhQHNzdS5h
Yy5rcjAeFw0xOTEwMDcwNTU2MTZaFw0yMDEwMDYwNTU2MTZaMGoxCzAJBgNVBAYT
AktSMQ4wDAYDVQQIDAVTZW91bDEMMAoGA1UECgwDU1NVMQswCQYDVQQLDAJTVzEP
MA0GA1UEAwwGc2VydmVyMR8wHQYJKoZIhvcNAQkBFhBzZXJ2ZXJAc3N1LmFjLmty
MIGfMA0GCSqGSIb3DQEBAQUAA4GNADCBiQKBgQC/sqjcnm2tSOkvTlcNheSoJ49S
qW9JCmaoLgLCfYxaNPc8HZqBPQitA79EEUSSo2AwU0twc/Ck2dS+pdT6oEm/oA+T
R37g/5HGuisA+DCe5z0md71iLc0AvGUR1n5iqkcGuKctOxQ5MT6J1fmrLhFU54gi
ATIR6lGtgPkNh7p5XwIDAQABo3sweTAJBgNVHRMEAjAAMCwGCWCGSAGG+EIBDQQf
Fh1PcGVuU1NMIEdlbmVyYXRlZCBDZXJ0aWZpY2F0ZTAdBgNVHQ4EFgQUrxZJPlIP
KDV+vtUsFNpH9El9oJkwHwYDVR0jBBgwFoAUXcdbcUunyQXi8aPOP7WZpBLu1w8w
DQYJKoZIhvcNAQELBQADgYEAJR1s+rynQ+gTm/LZoNa6YseU76jUy+xuw5QSFagH
/gQaVrgZyXV8aHnuPboKj9B8Aa44MJjKSyVxzqDIaSGW11DaSzNdawrWMnywgze9
SstbTi5LrmHWiDWW0ZTFnivOWu4rxAlZRKTfORgWdeq6RpYA/Z0We/uu136BuvGI
3IA=
-----END CERTIFICATE-----
